; ModuleID = 'source-C-CXX/27/189.c'
source_filename = "source-C-CXX/27/189.c"
target datalayout = "e-m:e-p270:32:32-p271:32:32-p272:64:64-i64:64-f80:128-n8:16:32:64-S128"
target triple = "x86_64-pc-linux-gnu"

@.str = private unnamed_addr constant [3 x i8] c"%d\00", align 1

; Function Attrs: nounwind sspstrong uwtable
define dso_local void @main() local_unnamed_addr #0 {
  %1 = alloca [1000 x i8], align 16
  %2 = alloca [300 x i32], align 16
  %3 = getelementptr inbounds [1000 x i8], [1000 x i8]* %1, i64 0, i64 0
  call void @llvm.lifetime.start.p0i8(i64 1000, i8* nonnull %3) #6
  call void @llvm.memset.p0i8.i64(i8* noundef nonnull align 16 dereferenceable(1000) %3, i8 0, i64 1000, i1 false)
  %4 = bitcast [300 x i32]* %2 to i8*
  call void @llvm.lifetime.start.p0i8(i64 1200, i8* nonnull %4) #6
  call void @llvm.memset.p0i8.i64(i8* noundef nonnull align 16 dereferenceable(1200) %4, i8 0, i64 1200, i1 false)
  %5 = call i32 (i8*, ...) bitcast (i32 (...)* @gets to i32 (i8*, ...)*)(i8* nonnull %3) #6
  %6 = load i8, i8* %3, align 16, !tbaa !5
  %7 = icmp eq i8 %6, 0
  br i1 %7, label %47, label %8

8:                                                ; preds = %0, %24
  %9 = phi i64 [ %29, %24 ], [ 0, %0 ]
  %10 = phi i32 [ %27, %24 ], [ 0, %0 ]
  %11 = phi i32 [ %28, %24 ], [ 0, %0 ]
  %12 = sext i32 %11 to i64
  br label %16

13:                                               ; preds = %24
  %14 = zext i32 %10 to i64
  %15 = zext i32 %27 to i64
  br label %34

16:                                               ; preds = %8, %21
  %17 = phi i64 [ %12, %8 ], [ %22, %21 ]
  %18 = phi i32 [ 0, %8 ], [ %23, %21 ]
  %19 = getelementptr inbounds [1000 x i8], [1000 x i8]* %1, i64 0, i64 %17
  %20 = load i8, i8* %19, align 1, !tbaa !5
  switch i8 %20, label %21 [
    i8 32, label %24
    i8 0, label %24
  ]

21:                                               ; preds = %16
  %22 = add i64 %17, 1
  %23 = add nuw nsw i32 %18, 1
  br label %16, !llvm.loop !8

24:                                               ; preds = %16, %16
  %25 = trunc i64 %17 to i32
  %26 = getelementptr inbounds [300 x i32], [300 x i32]* %2, i64 0, i64 %9
  store i32 %18, i32* %26, align 4, !tbaa !10
  %27 = add nuw nsw i32 %10, 1
  %28 = add nsw i32 %25, 1
  %29 = add nuw i64 %9, 1
  %30 = sext i32 %28 to i64
  %31 = getelementptr inbounds [1000 x i8], [1000 x i8]* %1, i64 0, i64 %30
  %32 = load i8, i8* %31, align 1, !tbaa !5
  %33 = icmp eq i8 %32, 0
  br i1 %33, label %13, label %8, !llvm.loop !12

34:                                               ; preds = %13, %44
  %35 = phi i64 [ 0, %13 ], [ %45, %44 ]
  %36 = getelementptr inbounds [300 x i32], [300 x i32]* %2, i64 0, i64 %35
  %37 = load i32, i32* %36, align 4, !tbaa !10
  %38 = icmp eq i32 %37, 0
  br i1 %38, label %44, label %39

39:                                               ; preds = %34
  %40 = call i32 (i8*, ...) @printf(i8* nonnull dereferenceable(1) getelementptr inbounds ([3 x i8], [3 x i8]* @.str, i64 0, i64 0), i32 %37)
  %41 = icmp ult i64 %35, %14
  br i1 %41, label %42, label %44

42:                                               ; preds = %39
  %43 = call i32 @putchar(i32 44)
  br label %44

44:                                               ; preds = %34, %42, %39
  %45 = add nuw nsw i64 %35, 1
  %46 = icmp eq i64 %45, %15
  br i1 %46, label %47, label %34, !llvm.loop !13

47:                                               ; preds = %44, %0
  call void @llvm.lifetime.end.p0i8(i64 1200, i8* nonnull %4) #6
  call void @llvm.lifetime.end.p0i8(i64 1000, i8* nonnull %3) #6
  ret void
}

; Function Attrs: argmemonly mustprogress nofree nosync nounwind willreturn
declare void @llvm.lifetime.start.p0i8(i64 immarg, i8* nocapture) #1

; Function Attrs: argmemonly mustprogress nofree nounwind willreturn writeonly
declare void @llvm.memset.p0i8.i64(i8* nocapture writeonly, i8, i64, i1 immarg) #2

declare i32 @gets(...) local_unnamed_addr #3

; Function Attrs: nofree nounwind
declare noundef i32 @printf(i8* nocapture noundef readonly, ...) local_unnamed_addr #4

; Function Attrs: argmemonly mustprogress nofree nosync nounwind willreturn
declare void @llvm.lifetime.end.p0i8(i64 immarg, i8* nocapture) #1

; Function Attrs: nofree nounwind
declare noundef i32 @putchar(i32 noundef) local_unnamed_addr #5


!llvm.module.flags = !{!0, !1, !2, !3}
!llvm.ident = !{!4}

!0 = !{i32 1, !"wchar_size", i32 4}
!1 = !{i32 7, !"PIC Level", i32 2}
!2 = !{i32 7, !"PIE Level", i32 2}
!3 = !{i32 7, !"uwtable", i32 1}
!4 = !{!"clang version 13.0.0"}
!5 = !{!6, !6, i64 0}
!6 = !{!"omnipotent char", !7, i64 0}
!7 = !{!"Simple C/C++ TBAA"}
!8 = distinct !{!8, !9}
!9 = !{!"llvm.loop.mustprogress"}
!10 = !{!11, !11, i64 0}
!11 = !{!"int", !6, i64 0}
!12 = distinct !{!12, !9}
!13 = distinct !{!13, !9}
